Certificate:
    Data:
        Version: 3 (0x2)
        Serial Number:
            fb:85:3a:a9:db:84:f8:d7
        Signature Algorithm: sha1WithRSAEncryption
        Issuer: C=US, ST=Massachusetts, O=BBN Curveballs, CN=curveball/emailAddress=curveball@bbn.com
        Validity
            Not Before: May  9 05:50:13 2011 GMT
            Not After : May  8 05:50:13 2014 GMT
        Subject: C=US, ST=Massachusetts, O=BBN Curveballs, CN=curveball/emailAddress=curveball@bbn.com
        Subject Public Key Info:
            Public Key Algorithm: rsaEncryption
            RSA Public Key: (1024 bit)
                Modulus (1024 bit):
                    00:b2:0f:40:9f:60:79:5c:4b:7e:d5:59:d8:bb:41:
                    76:f0:21:f3:49:4e:e1:0d:86:fc:ed:69:1d:c0:41:
                    cc:6c:99:92:da:97:2c:74:4a:10:d9:11:57:5a:65:
                    1c:68:13:fd:56:3a:1d:44:a7:ea:dc:cb:a1:69:4e:
                    ef:da:d5:08:e8:12:39:cb:dd:ba:ee:0f:50:fd:c9:
                    27:41:05:77:84:cf:09:5c:17:c8:02:2e:34:35:e3:
                    ca:1d:2c:32:a6:cb:83:84:09:1e:4a:70:68:0a:bc:
                    69:fd:da:cb:21:5f:e4:24:40:28:ee:33:c2:d3:1a:
                    2d:17:ca:40:d1:0b:33:43:fb
                Exponent: 65537 (0x10001)
        X509v3 extensions:
            X509v3 Subject Key Identifier: 
                57:B3:88:53:63:78:4B:2F:7F:A2:A0:3B:8A:09:B3:C5:EF:18:80:D1
            X509v3 Authority Key Identifier: 
                keyid:57:B3:88:53:63:78:4B:2F:7F:A2:A0:3B:8A:09:B3:C5:EF:18:80:D1
                DirName:/C=US/ST=Massachusetts/O=BBN Curveballs/CN=curveball/emailAddress=curveball@bbn.com
                serial:FB:85:3A:A9:DB:84:F8:D7

            X509v3 Basic Constraints: 
                CA:TRUE
    Signature Algorithm: sha1WithRSAEncryption
        05:23:d4:55:14:6e:f6:6e:8a:35:51:8c:48:61:57:3b:4f:e1:
        36:d7:81:6c:ba:0d:23:18:2b:e8:ba:8a:5a:e0:dd:c8:fe:9d:
        58:32:dc:ba:c8:3b:68:37:a5:6b:58:4c:bd:cc:d7:06:ed:18:
        1c:ab:d5:0c:87:63:ee:63:4a:4f:f0:fe:17:2f:44:b0:9b:6e:
        2a:06:2a:f4:50:c3:d5:98:81:9f:ce:f5:ec:48:70:c1:6b:97:
        26:fe:16:75:b9:bb:ec:bb:39:fc:c5:e0:15:6c:f2:3b:26:1f:
        7e:cd:ff:11:a1:27:24:59:63:64:88:38:cb:fb:1a:8f:1d:8d:
        2e:ea
-----BEGIN CERTIFICATE-----
MIIDQDCCAqmgAwIBAgIJAPuFOqnbhPjXMA0GCSqGSIb3DQEBBQUAMHQxCzAJBgNV
BAYTAlVTMRYwFAYDVQQIEw1NYXNzYWNodXNldHRzMRcwFQYDVQQKEw5CQk4gQ3Vy
dmViYWxsczESMBAGA1UEAxMJY3VydmViYWxsMSAwHgYJKoZIhvcNAQkBFhFjdXJ2
ZWJhbGxAYmJuLmNvbTAeFw0xMTA1MDkwNTUwMTNaFw0xNDA1MDgwNTUwMTNaMHQx
CzAJBgNVBAYTAlVTMRYwFAYDVQQIEw1NYXNzYWNodXNldHRzMRcwFQYDVQQKEw5C
Qk4gQ3VydmViYWxsczESMBAGA1UEAxMJY3VydmViYWxsMSAwHgYJKoZIhvcNAQkB
FhFjdXJ2ZWJhbGxAYmJuLmNvbTCBnzANBgkqhkiG9w0BAQEFAAOBjQAwgYkCgYEA
sg9An2B5XEt+1VnYu0F28CHzSU7hDYb87WkdwEHMbJmS2pcsdEoQ2RFXWmUcaBP9
VjodRKfq3MuhaU7v2tUI6BI5y9267g9Q/cknQQV3hM8JXBfIAi40NePKHSwypsuD
hAkeSnBoCrxp/drLIV/kJEAo7jPC0xotF8pA0QszQ/sCAwEAAaOB2TCB1jAdBgNV
HQ4EFgQUV7OIU2N4Sy9/oqA7igmzxe8YgNEwgaYGA1UdIwSBnjCBm4AUV7OIU2N4
Sy9/oqA7igmzxe8YgNGheKR2MHQxCzAJBgNVBAYTAlVTMRYwFAYDVQQIEw1NYXNz
YWNodXNldHRzMRcwFQYDVQQKEw5CQk4gQ3VydmViYWxsczESMBAGA1UEAxMJY3Vy
dmViYWxsMSAwHgYJKoZIhvcNAQkBFhFjdXJ2ZWJhbGxAYmJuLmNvbYIJAPuFOqnb
hPjXMAwGA1UdEwQFMAMBAf8wDQYJKoZIhvcNAQEFBQADgYEABSPUVRRu9m6KNVGM
SGFXO0/hNteBbLoNIxgr6LqKWuDdyP6dWDLcusg7aDela1hMvczXBu0YHKvVDIdj
7mNKT/D+Fy9EsJtuKgYq9FDD1ZiBn8717EhwwWuXJv4Wdbm77Ls5/MXgFWzyOyYf
fs3/EaEnJFljZIg4y/sajx2NLuo=
-----END CERTIFICATE-----
